Certificate:
    Data:
        Version: 3 (0x2)
        Serial Number:
            8e:1f:8e:ad:b6:ee:48:86:1a:36:7a:5d:6d:05:80:ad
        Signature Algorithm: sha256WithRSAEncryption
        Issuer: CN=a
        Validity
            Not Before: Dec  8 08:27:25 2025 GMT
            Not After : Mar 12 08:27:25 2028 GMT
        Subject: CN=server
        Subject Public Key Info:
            Public Key Algorithm: rsaEncryption
                Public-Key: (2048 bit)
                Modulus:
                    00:aa:af:7c:31:14:6b:59:d4:1b:26:e8:33:3e:be:
                    da:ea:dd:46:37:de:39:e9:d4:d6:a2:d6:8b:8b:74:
                    f1:d1:58:05:81:da:86:80:f1:53:43:e5:01:77:2c:
                    7d:0c:37:46:2f:86:3a:d1:93:f5:28:31:8b:7f:3a:
                    e3:b5:06:56:c6:c3:21:55:79:14:13:25:7d:e9:7b:
                    6e:22:75:0a:35:fc:3b:dc:6d:03:59:aa:57:39:f5:
                    bd:e7:23:db:8b:00:e2:6a:7a:51:c4:29:67:4b:81:
                    75:89:18:99:82:54:e9:d5:e6:70:12:a9:a6:2b:d4:
                    8d:12:a3:5d:f2:f9:7f:2b:26:58:71:e7:d9:a8:e2:
                    9f:c1:4c:44:2e:ae:2c:d7:6c:23:81:3b:fa:38:b0:
                    8f:53:51:b5:34:ed:1b:1e:76:97:37:52:61:ea:bb:
                    10:60:2d:98:c5:63:ba:7d:b3:09:2b:12:e8:66:6b:
                    0e:99:c0:f8:01:95:84:51:a1:c9:20:ff:0a:2c:e0:
                    bf:39:19:38:d6:91:ff:e9:6c:18:26:57:89:bc:de:
                    4a:9f:d9:14:da:30:38:4b:31:99:f1:33:ae:82:d0:
                    4e:fb:b6:84:85:a6:16:c5:fc:58:9a:b8:2b:28:12:
                    59:7a:bc:47:bc:6a:06:4b:4d:57:84:43:80:c0:f0:
                    b0:e9
                Exponent: 65537 (0x10001)
        X509v3 extensions:
            X509v3 Basic Constraints: 
                CA:FALSE
            X509v3 Subject Key Identifier: 
                C6:B0:F1:21:94:AE:BE:2B:C1:A2:2E:66:C9:CB:FC:04:DD:B7:53:19
            X509v3 Authority Key Identifier: 
                keyid:DC:ED:6B:72:19:1E:9A:2E:9F:63:1B:60:E0:34:21:24:46:E8:C4:FA
                DirName:/CN=a
                serial:6D:93:FC:54:06:34:E0:59:98:4B:26:3D:23:78:50:27:CC:CA:D3:AE
            X509v3 Extended Key Usage: 
                TLS Web Server Authentication
            X509v3 Key Usage: 
                Digital Signature, Key Encipherment
    Signature Algorithm: sha256WithRSAEncryption
    Signature Value:
        3a:c2:58:34:a1:93:72:c3:2c:7f:9c:f3:de:61:5f:05:59:3b:
        43:bc:3e:05:39:df:7e:2e:4b:fd:bd:83:20:d7:75:15:09:e2:
        8a:68:a2:e6:26:1a:25:ec:3c:24:14:4f:f8:1b:0f:ca:02:26:
        de:8d:d3:ee:3b:20:9b:71:8e:2d:03:ac:0e:41:03:df:4b:5f:
        e9:22:84:9f:87:02:e7:16:df:ef:73:fa:13:2e:11:a5:65:a0:
        64:1a:52:ad:1a:27:17:2e:8f:1e:88:59:22:14:7f:0d:a3:91:
        d5:6b:de:da:ac:38:ef:a3:0e:5a:9c:d9:f3:9b:fe:f7:64:ad:
        0f:ca:35:41:99:01:fd:6b:50:00:c2:77:3c:de:44:a7:06:91:
        ff:af:ce:5c:b1:bb:da:1b:a5:88:b2:4f:83:65:35:24:d0:07:
        70:23:00:06:40:4c:ed:d1:3c:88:bb:3b:8d:ee:4a:11:1c:ae:
        73:86:71:87:92:97:9c:50:2e:e9:0a:eb:67:a5:86:d2:ac:e1:
        8a:fb:4c:a7:a0:00:e2:59:e0:56:5b:6f:78:36:83:c1:15:46:
        6e:d2:8a:71:ef:11:2a:7e:52:29:bb:ed:bc:ee:71:b5:b2:c0:
        46:4b:62:bb:e6:90:fb:a7:2d:fa:3e:e1:62:44:d6:fc:36:ff:
        47:00:0b:f3
-----BEGIN CERTIFICATE-----
MIIDQTCCAimgAwIBAgIRAI4fjq227kiGGjZ6XW0FgK0wDQYJKoZIhvcNAQELBQAw
DDEKMAgGA1UEAwwBYTAeFw0yNTEyMDgwODI3MjVaFw0yODAzMTIwODI3MjVaMBEx
DzANBgNVBAMMBnNlcnZlcjCCASIwDQYJKoZIhvcNAQEBBQADggEPADCCAQoCggEB
AKqvfDEUa1nUGyboMz6+2urdRjfeOenU1qLWi4t08dFYBYHahoDxU0PlAXcsfQw3
Ri+GOtGT9Sgxi38647UGVsbDIVV5FBMlfel7biJ1CjX8O9xtA1mqVzn1vecj24sA
4mp6UcQpZ0uBdYkYmYJU6dXmcBKppivUjRKjXfL5fysmWHHn2ajin8FMRC6uLNds
I4E7+jiwj1NRtTTtGx52lzdSYeq7EGAtmMVjun2zCSsS6GZrDpnA+AGVhFGhySD/
CizgvzkZONaR/+lsGCZXibzeSp/ZFNowOEsxmfEzroLQTvu2hIWmFsX8WJq4KygS
WXq8R7xqBktNV4RDgMDwsOkCAwEAAaOBmDCBlTAJBgNVHRMEAjAAMB0GA1UdDgQW
BBTGsPEhlK6+K8GiLmbJy/wE3bdTGTBHBgNVHSMEQDA+gBTc7WtyGR6aLp9jG2Dg
NCEkRujE+qEQpA4wDDEKMAgGA1UEAwwBYYIUbZP8VAY04FmYSyY9I3hQJ8zK064w
EwYDVR0lBAwwCgYIKwYBBQUHAwEwCwYDVR0PBAQDAgWgMA0GCSqGSIb3DQEBCwUA
A4IBAQA6wlg0oZNywyx/nPPeYV8FWTtDvD4FOd9+Lkv9vYMg13UVCeKKaKLmJhol
7DwkFE/4Gw/KAibejdPuOyCbcY4tA6wOQQPfS1/pIoSfhwLnFt/vc/oTLhGlZaBk
GlKtGicXLo8eiFkiFH8No5HVa97arDjvow5anNnzm/73ZK0PyjVBmQH9a1AAwnc8
3kSnBpH/r85csbvaG6WIsk+DZTUk0AdwIwAGQEzt0TyIuzuN7koRHK5zhnGHkpec
UC7pCutnpYbSrOGK+0ynoADiWeBWW294NoPBFUZu0opx7xEqflIpu+287nG1ssBG
S2K75pD7py36PuFiRNb8Nv9HAAvz
-----END CERTIFICATE-----
